; ModuleID = '17/407.c'
source_filename = "17/407.c"
target datalayout = "e-m:e-p270:32:32-p271:32:32-p272:64:64-i64:64-f80:128-n8:16:32:64-S128"
target triple = "x86_64-pc-linux-gnu"

@.str = private unnamed_addr constant [3 x i8] c"%s\00", align 1
@.str.1 = private unnamed_addr constant [4 x i8] c"%s\0A\00", align 1
@.str.2 = private unnamed_addr constant [3 x i8] c"%c\00", align 1
@.str.3 = private unnamed_addr constant [2 x i8] c"\0A\00", align 1

; Function Attrs: noinline nounwind uwtable
define dso_local i32 @main() #0 {
  %1 = alloca i32, align 4
  %2 = alloca [120 x i8], align 16
  %3 = alloca i32, align 4
  %4 = alloca i32, align 4
  %5 = alloca i32, align 4
  %6 = alloca i32, align 4
  %7 = alloca i8, align 1
  %8 = alloca i8, align 1
  store i32 0, i32* %1, align 4
  br label %9

9:                                                ; preds = %120, %0
  %10 = getelementptr inbounds [120 x i8], [120 x i8]* %2, i64 0, i64 0
  %11 = call i32 (i8*, ...) @__isoc99_scanf(i8* getelementptr inbounds ([3 x i8], [3 x i8]* @.str, i64 0, i64 0), i8* %10)
  %12 = icmp ne i32 %11, -1
  br i1 %12, label %13, label %122

13:                                               ; preds = %9
  %14 = getelementptr inbounds [120 x i8], [120 x i8]* %2, i64 0, i64 0
  %15 = call i64 @strlen(i8* %14) #3
  %16 = trunc i64 %15 to i32
  store i32 %16, i32* %4, align 4
  %17 = getelementptr inbounds [120 x i8], [120 x i8]* %2, i64 0, i64 0
  %18 = call i32 (i8*, ...) @printf(i8* getelementptr inbounds ([4 x i8], [4 x i8]* @.str.1, i64 0, i64 0), i8* %17)
  br label %19

19:                                               ; preds = %13, %77
  store i32 -1, i32* %5, align 4
  store i32 0, i32* %6, align 4
  store i32 0, i32* %3, align 4
  br label %20

20:                                               ; preds = %70, %19
  %21 = load i32, i32* %3, align 4
  %22 = load i32, i32* %4, align 4
  %23 = icmp slt i32 %21, %22
  br i1 %23, label %24, label %73

24:                                               ; preds = %20
  %25 = load i32, i32* %5, align 4
  %26 = icmp eq i32 %25, -1
  br i1 %26, label %27, label %36

27:                                               ; preds = %24
  %28 = load i32, i32* %3, align 4
  %29 = sext i32 %28 to i64
  %30 = getelementptr inbounds [120 x i8], [120 x i8]* %2, i64 0, i64 %29
  %31 = load i8, i8* %30, align 1
  %32 = sext i8 %31 to i32
  %33 = icmp eq i32 %32, 40
  br i1 %33, label %34, label %36

34:                                               ; preds = %27
  %35 = load i32, i32* %3, align 4
  store i32 %35, i32* %5, align 4
  br label %69

36:                                               ; preds = %27, %24
  %37 = load i32, i32* %5, align 4
  %38 = icmp sge i32 %37, 0
  br i1 %38, label %39, label %55

39:                                               ; preds = %36
  %40 = load i32, i32* %3, align 4
  %41 = sext i32 %40 to i64
  %42 = getelementptr inbounds [120 x i8], [120 x i8]* %2, i64 0, i64 %41
  %43 = load i8, i8* %42, align 1
  %44 = sext i8 %43 to i32
  %45 = icmp eq i32 %44, 41
  br i1 %45, label %46, label %55

46:                                               ; preds = %39
  %47 = load i32, i32* %5, align 4
  %48 = sext i32 %47 to i64
  %49 = getelementptr inbounds [120 x i8], [120 x i8]* %2, i64 0, i64 %48
  store i8 32, i8* %49, align 1
  %50 = load i32, i32* %3, align 4
  %51 = sext i32 %50 to i64
  %52 = getelementptr inbounds [120 x i8], [120 x i8]* %2, i64 0, i64 %51
  store i8 32, i8* %52, align 1
  %53 = load i32, i32* %6, align 4
  %54 = add nsw i32 %53, 1
  store i32 %54, i32* %6, align 4
  br label %73

55:                                               ; preds = %39, %36
  %56 = load i32, i32* %5, align 4
  %57 = icmp sge i32 %56, 0
  br i1 %57, label %58, label %67

58:                                               ; preds = %55
  %59 = load i32, i32* %3, align 4
  %60 = sext i32 %59 to i64
  %61 = getelementptr inbounds [120 x i8], [120 x i8]* %2, i64 0, i64 %60
  %62 = load i8, i8* %61, align 1
  %63 = sext i8 %62 to i32
  %64 = icmp eq i32 %63, 40
  br i1 %64, label %65, label %67

65:                                               ; preds = %58
  %66 = load i32, i32* %3, align 4
  store i32 %66, i32* %5, align 4
  br label %67

67:                                               ; preds = %65, %58, %55
  br label %68

68:                                               ; preds = %67
  br label %69

69:                                               ; preds = %68, %34
  br label %70

70:                                               ; preds = %69
  %71 = load i32, i32* %3, align 4
  %72 = add nsw i32 %71, 1
  store i32 %72, i32* %3, align 4
  br label %20

73:                                               ; preds = %46, %20
  %74 = load i32, i32* %6, align 4
  %75 = icmp ne i32 %74, 0
  br i1 %75, label %77, label %76

76:                                               ; preds = %73
  br label %78

77:                                               ; preds = %73
  br label %19

78:                                               ; preds = %76
  store i32 0, i32* %3, align 4
  br label %79

79:                                               ; preds = %117, %78
  %80 = load i32, i32* %3, align 4
  %81 = load i32, i32* %4, align 4
  %82 = icmp slt i32 %80, %81
  br i1 %82, label %83, label %120

83:                                               ; preds = %79
  %84 = load i32, i32* %3, align 4
  %85 = sext i32 %84 to i64
  %86 = getelementptr inbounds [120 x i8], [120 x i8]* %2, i64 0, i64 %85
  %87 = load i8, i8* %86, align 1
  %88 = sext i8 %87 to i32
  %89 = icmp eq i32 %88, 40
  br i1 %89, label %90, label %94

90:                                               ; preds = %83
  %91 = load i32, i32* %3, align 4
  %92 = sext i32 %91 to i64
  %93 = getelementptr inbounds [120 x i8], [120 x i8]* %2, i64 0, i64 %92
  store i8 36, i8* %93, align 1
  br label %110

94:                                               ; preds = %83
  %95 = load i32, i32* %3, align 4
  %96 = sext i32 %95 to i64
  %97 = getelementptr inbounds [120 x i8], [120 x i8]* %2, i64 0, i64 %96
  %98 = load i8, i8* %97, align 1
  %99 = sext i8 %98 to i32
  %100 = icmp eq i32 %99, 41
  br i1 %100, label %101, label %105

101:                                              ; preds = %94
  %102 = load i32, i32* %3, align 4
  %103 = sext i32 %102 to i64
  %104 = getelementptr inbounds [120 x i8], [120 x i8]* %2, i64 0, i64 %103
  store i8 63, i8* %104, align 1
  br label %109

105:                                              ; preds = %94
  %106 = load i32, i32* %3, align 4
  %107 = sext i32 %106 to i64
  %108 = getelementptr inbounds [120 x i8], [120 x i8]* %2, i64 0, i64 %107
  store i8 32, i8* %108, align 1
  br label %109

109:                                              ; preds = %105, %101
  br label %110

110:                                              ; preds = %109, %90
  %111 = load i32, i32* %3, align 4
  %112 = sext i32 %111 to i64
  %113 = getelementptr inbounds [120 x i8], [120 x i8]* %2, i64 0, i64 %112
  %114 = load i8, i8* %113, align 1
  %115 = sext i8 %114 to i32
  %116 = call i32 (i8*, ...) @printf(i8* getelementptr inbounds ([3 x i8], [3 x i8]* @.str.2, i64 0, i64 0), i32 %115)
  br label %117

117:                                              ; preds = %110
  %118 = load i32, i32* %3, align 4
  %119 = add nsw i32 %118, 1
  store i32 %119, i32* %3, align 4
  br label %79

120:                                              ; preds = %79
  %121 = call i32 (i8*, ...) @printf(i8* getelementptr inbounds ([2 x i8], [2 x i8]* @.str.3, i64 0, i64 0))
  br label %9

122:                                              ; preds = %9
  ret i32 0
}

declare dso_local i32 @__isoc99_scanf(i8*, ...) #1

; Function Attrs: nounwind readonly
declare dso_local i64 @strlen(i8*) #2

declare dso_local i32 @printf(i8*, ...) #1


!llvm.module.flags = !{!0}
!llvm.ident = !{!1}

!0 = !{i32 1, !"wchar_size", i32 4}
!1 = !{!"clang version 10.0.0-4ubuntu1 "}
